target datalayout = "e-m:e-p270:32:32-p271:32:32-p272:64:64-i64:64-i128:128-f80:128-n8:16:32:64-S128"
target triple = "x86_64-pc-linux-gnu"

%struct._packet_info = type { ptr, ptr, i32, i32, %struct.nstime_t, %struct.nstime_t, %struct.nstime_t, i8, ptr, ptr, ptr, ptr, %struct._address, %struct._address, %struct._address, %struct._address, %struct._address, %struct._address, i32, ptr, i8, [3 x i8], %struct.anon, i32, i32, i32, i32, ptr, i8, ptr, ptr, i16, i16, i32, i32, i16, i32, i32, ptr, ptr, ptr, i8, i8, i16, i16, i16, i32, i16, i16, ptr, ptr, ptr, ptr, ptr, i32, i32 }
%struct.nstime_t = type { i64, i32 }
%struct._address = type { i32, i32, ptr, ptr }
%struct.anon = type { i8, [3 x i8] }
%struct.sip_hash_key = type { [128 x i8], %struct._address, i32, %struct._address, i32, i32 }
%struct._frame_data = type <{ i32, i32, i32, i32, i32, [4 x i8], i64, ptr, ptr, ptr, i8, i16, [5 x i8], %struct.nstime_t, %struct.nstime_t, i32, i32 }>
%struct.sip_frame_result_value = type { i32, i32, i32 }
%struct.sip_hash_value = type { i32, i32, ptr, %struct.nstime_t, i32, i32 }

@proto_sip = internal global i32 0, align 4
@sip_hash = internal global ptr null, align 8

; Function Attrs: inlinehint nounwind null_pointer_is_valid sspstrong uwtable
define internal void @set_address(ptr noundef %0, i32 noundef %1, i32 noundef %2, ptr noundef %3) #3 {
  %5 = alloca ptr, align 8
  %6 = alloca i32, align 4
  %7 = alloca i32, align 4
  %8 = alloca ptr, align 8
  store ptr %0, ptr %5, align 8
  store i32 %1, ptr %6, align 4
  store i32 %2, ptr %7, align 4
  store ptr %3, ptr %8, align 8
  %9 = load i32, ptr %7, align 4
  %10 = icmp eq i32 %9, 0
  br i1 %10, label %11, label %14

11:                                               ; preds = %4
  br label %12

12:                                               ; preds = %11
  br label %13

13:                                               ; preds = %12
  br label %19

14:                                               ; preds = %4
  br label %15

15:                                               ; preds = %14
  br label %16

16:                                               ; preds = %15
  br label %17

17:                                               ; preds = %16
  br label %18

18:                                               ; preds = %17
  br label %19

19:                                               ; preds = %18, %13
  %20 = load i32, ptr %6, align 4
  %21 = load ptr, ptr %5, align 8
  %22 = getelementptr inbounds nuw %struct._address, ptr %21, i32 0, i32 0
  store i32 %20, ptr %22, align 8
  %23 = load i32, ptr %7, align 4
  %24 = load ptr, ptr %5, align 8
  %25 = getelementptr inbounds nuw %struct._address, ptr %24, i32 0, i32 1
  store i32 %23, ptr %25, align 4
  %26 = load ptr, ptr %8, align 8
  %27 = load ptr, ptr %5, align 8
  %28 = getelementptr inbounds nuw %struct._address, ptr %27, i32 0, i32 2
  store ptr %26, ptr %28, align 8
  %29 = load ptr, ptr %5, align 8
  %30 = getelementptr inbounds nuw %struct._address, ptr %29, i32 0, i32 3
  store ptr null, ptr %30, align 8
  ret void
}

; Function Attrs: null_pointer_is_valid sspstrong uwtable
define internal i32 @sip_find_invite(ptr noundef %0, ptr noundef %1, ptr noundef %2, i8 noundef zeroext %3, i32 noundef %4, ptr noundef %5) #0 {
  %7 = alloca i32, align 4
  %8 = alloca ptr, align 8
  %9 = alloca ptr, align 8
  %10 = alloca ptr, align 8
  %11 = alloca i8, align 1
  %12 = alloca i32, align 4
  %13 = alloca ptr, align 8
  %14 = alloca %struct.sip_hash_key, align 8
  %15 = alloca ptr, align 8
  %16 = alloca ptr, align 8
  %17 = alloca i32, align 4
  %18 = alloca i32, align 4
  %19 = alloca i32, align 4
  %20 = alloca i32, align 4
  store ptr %0, ptr %8, align 8
  store ptr %1, ptr %9, align 8
  store ptr %2, ptr %10, align 8
  store i8 %3, ptr %11, align 1
  store i32 %4, ptr %12, align 4
  store ptr %5, ptr %13, align 8
  call void @llvm.lifetime.start.p0(i64 192, ptr %14) #18
  call void @llvm.lifetime.start.p0(i64 8, ptr %15) #18
  store ptr null, ptr %15, align 8
  call void @llvm.lifetime.start.p0(i64 8, ptr %16) #18
  store ptr null, ptr %16, align 8
  call void @llvm.lifetime.start.p0(i64 4, ptr %17) #18
  store i32 0, ptr %17, align 4
  call void @llvm.lifetime.start.p0(i64 4, ptr %18) #18
  call void @llvm.lifetime.start.p0(i64 4, ptr %19) #18
  %21 = load ptr, ptr %8, align 8
  %22 = getelementptr inbounds nuw %struct._packet_info, ptr %21, i32 0, i32 22
  %23 = load i8, ptr %22, align 4
  %24 = and i8 %23, 1
  %25 = zext i8 %24 to i32
  %26 = icmp ne i32 %25, 0
  br i1 %26, label %27, label %28

27:                                               ; preds = %6
  store i32 0, ptr %7, align 4
  store i32 1, ptr %20, align 4
  br label %171

28:                                               ; preds = %6
  %29 = load i8, ptr %11, align 1
  %30 = icmp ne i8 %29, 0
  br i1 %30, label %32, label %31

31:                                               ; preds = %28
  store i32 0, ptr %7, align 4
  store i32 1, ptr %20, align 4
  br label %171

32:                                               ; preds = %28
  %33 = load ptr, ptr %8, align 8
  %34 = getelementptr inbounds nuw %struct._packet_info, ptr %33, i32 0, i32 8
  %35 = load ptr, ptr %34, align 8
  %36 = getelementptr inbounds nuw %struct._frame_data, ptr %35, i32 0, i32 11
  %37 = load i16, ptr %36, align 1
  %38 = lshr i16 %37, 3
  %39 = and i16 %38, 1
  %40 = zext i16 %39 to i32
  %41 = icmp ne i32 %40, 0
  br i1 %41, label %42, label %62

42:                                               ; preds = %32
  %43 = call ptr @wmem_file_scope()
  %44 = load ptr, ptr %8, align 8
  %45 = load i32, ptr @proto_sip, align 4
  %46 = load ptr, ptr %8, align 8
  %47 = getelementptr inbounds nuw %struct._packet_info, ptr %46, i32 0, i32 41
  %48 = load i8, ptr %47, align 8
  %49 = zext i8 %48 to i32
  %50 = call ptr @p_get_proto_data(ptr noundef %43, ptr noundef %44, i32 noundef %45, i32 noundef %49)
  store ptr %50, ptr %16, align 8
  %51 = load ptr, ptr %16, align 8
  %52 = icmp ne ptr %51, null
  br i1 %52, label %53, label %61

53:                                               ; preds = %42
  %54 = load ptr, ptr %16, align 8
  %55 = getelementptr inbounds nuw %struct.sip_frame_result_value, ptr %54, i32 0, i32 2
  %56 = load i32, ptr %55, align 4
  %57 = load ptr, ptr %13, align 8
  store i32 %56, ptr %57, align 4
  %58 = load ptr, ptr %16, align 8
  %59 = getelementptr inbounds nuw %struct.sip_frame_result_value, ptr %58, i32 0, i32 1
  %60 = load i32, ptr %59, align 4
  store i32 %60, ptr %7, align 4
  store i32 1, ptr %20, align 4
  br label %171

61:                                               ; preds = %42
  store i32 0, ptr %7, align 4
  store i32 1, ptr %20, align 4
  br label %171

62:                                               ; preds = %32
  %63 = getelementptr inbounds nuw %struct.sip_hash_key, ptr %14, i32 0, i32 0
  %64 = getelementptr inbounds [128 x i8], ptr %63, i64 0, i64 0
  %65 = load ptr, ptr %10, align 8
  %66 = call i64 @g_strlcpy(ptr noundef %64, ptr noundef %65, i64 noundef 128)
  %67 = getelementptr inbounds nuw %struct.sip_hash_key, ptr %14, i32 0, i32 3
  %68 = load ptr, ptr %8, align 8
  %69 = getelementptr inbounds nuw %struct._packet_info, ptr %68, i32 0, i32 15
  %70 = getelementptr inbounds nuw %struct._address, ptr %69, i32 0, i32 0
  %71 = load i32, ptr %70, align 8
  %72 = load ptr, ptr %8, align 8
  %73 = getelementptr inbounds nuw %struct._packet_info, ptr %72, i32 0, i32 15
  %74 = getelementptr inbounds nuw %struct._address, ptr %73, i32 0, i32 1
  %75 = load i32, ptr %74, align 4
  %76 = load ptr, ptr %8, align 8
  %77 = getelementptr inbounds nuw %struct._packet_info, ptr %76, i32 0, i32 15
  %78 = getelementptr inbounds nuw %struct._address, ptr %77, i32 0, i32 2
  %79 = load ptr, ptr %78, align 8
  call void @set_address(ptr noundef %67, i32 noundef %71, i32 noundef %75, ptr noundef %79)
  %80 = getelementptr inbounds nuw %struct.sip_hash_key, ptr %14, i32 0, i32 1
  %81 = load ptr, ptr %8, align 8
  %82 = getelementptr inbounds nuw %struct._packet_info, ptr %81, i32 0, i32 14
  %83 = getelementptr inbounds nuw %struct._address, ptr %82, i32 0, i32 0
  %84 = load i32, ptr %83, align 8
  %85 = load ptr, ptr %8, align 8
  %86 = getelementptr inbounds nuw %struct._packet_info, ptr %85, i32 0, i32 14
  %87 = getelementptr inbounds nuw %struct._address, ptr %86, i32 0, i32 1
  %88 = load i32, ptr %87, align 4
  %89 = load ptr, ptr %8, align 8
  %90 = getelementptr inbounds nuw %struct._packet_info, ptr %89, i32 0, i32 14
  %91 = getelementptr inbounds nuw %struct._address, ptr %90, i32 0, i32 2
  %92 = load ptr, ptr %91, align 8
  call void @set_address(ptr noundef %80, i32 noundef %84, i32 noundef %88, ptr noundef %92)
  %93 = load ptr, ptr %8, align 8
  %94 = getelementptr inbounds nuw %struct._packet_info, ptr %93, i32 0, i32 25
  %95 = load i32, ptr %94, align 8
  %96 = getelementptr inbounds nuw %struct.sip_hash_key, ptr %14, i32 0, i32 4
  store i32 %95, ptr %96, align 8
  %97 = load ptr, ptr %8, align 8
  %98 = getelementptr inbounds nuw %struct._packet_info, ptr %97, i32 0, i32 24
  %99 = load i32, ptr %98, align 4
  %100 = getelementptr inbounds nuw %struct.sip_hash_key, ptr %14, i32 0, i32 2
  store i32 %99, ptr %100, align 8
  %101 = load ptr, ptr %8, align 8
  %102 = getelementptr inbounds nuw %struct._packet_info, ptr %101, i32 0, i32 23
  %103 = load i32, ptr %102, align 8
  %104 = getelementptr inbounds nuw %struct.sip_hash_key, ptr %14, i32 0, i32 5
  store i32 %103, ptr %104, align 4
  %105 = load ptr, ptr @sip_hash, align 8
  %106 = call ptr @g_hash_table_lookup(ptr noundef %105, ptr noundef %14)
  store ptr %106, ptr %15, align 8
  %107 = load ptr, ptr %15, align 8
  %108 = icmp ne ptr %107, null
  br i1 %108, label %109, label %110

109:                                              ; preds = %62
  br label %111

110:                                              ; preds = %62
  store i32 0, ptr %7, align 4
  store i32 1, ptr %20, align 4
  br label %171

111:                                              ; preds = %109
  %112 = load ptr, ptr %15, align 8
  %113 = getelementptr inbounds nuw %struct.sip_hash_value, ptr %112, i32 0, i32 5
  %114 = load i32, ptr %113, align 4
  store i32 %114, ptr %17, align 4
  %115 = call ptr @wmem_file_scope()
  %116 = load ptr, ptr %8, align 8
  %117 = load i32, ptr @proto_sip, align 4
  %118 = load ptr, ptr %8, align 8
  %119 = getelementptr inbounds nuw %struct._packet_info, ptr %118, i32 0, i32 41
  %120 = load i8, ptr %119, align 8
  %121 = zext i8 %120 to i32
  %122 = call ptr @p_get_proto_data(ptr noundef %115, ptr noundef %116, i32 noundef %117, i32 noundef %121)
  store ptr %122, ptr %16, align 8
  %123 = load ptr, ptr %16, align 8
  %124 = icmp eq ptr %123, null
  br i1 %124, label %125, label %136

125:                                              ; preds = %111
  %126 = call ptr @wmem_file_scope()
  %127 = call noalias ptr @wmem_alloc0(ptr noundef %126, i64 noundef 12) #22
  store ptr %127, ptr %16, align 8
  %128 = call ptr @wmem_file_scope()
  %129 = load ptr, ptr %8, align 8
  %130 = load i32, ptr @proto_sip, align 4
  %131 = load ptr, ptr %8, align 8
  %132 = getelementptr inbounds nuw %struct._packet_info, ptr %131, i32 0, i32 41
  %133 = load i8, ptr %132, align 8
  %134 = zext i8 %133 to i32
  %135 = load ptr, ptr %16, align 8
  call void @p_add_proto_data(ptr noundef %128, ptr noundef %129, i32 noundef %130, i32 noundef %134, ptr noundef %135)
  br label %136

136:                                              ; preds = %125, %111
  %137 = load i32, ptr %17, align 4
  %138 = load ptr, ptr %16, align 8
  %139 = getelementptr inbounds nuw %struct.sip_frame_result_value, ptr %138, i32 0, i32 1
  store i32 %137, ptr %139, align 4
  %140 = load ptr, ptr %8, align 8
  %141 = getelementptr inbounds nuw %struct._packet_info, ptr %140, i32 0, i32 4
  %142 = getelementptr inbounds nuw %struct.nstime_t, ptr %141, i32 0, i32 0
  %143 = load i64, ptr %142, align 8
  %144 = load ptr, ptr %15, align 8
  %145 = getelementptr inbounds nuw %struct.sip_hash_value, ptr %144, i32 0, i32 3
  %146 = getelementptr inbounds nuw %struct.nstime_t, ptr %145, i32 0, i32 0
  %147 = load i64, ptr %146, align 8
  %148 = sub i64 %143, %147
  %149 = trunc i64 %148 to i32
  store i32 %149, ptr %18, align 4
  %150 = load ptr, ptr %8, align 8
  %151 = getelementptr inbounds nuw %struct._packet_info, ptr %150, i32 0, i32 4
  %152 = getelementptr inbounds nuw %struct.nstime_t, ptr %151, i32 0, i32 1
  %153 = load i32, ptr %152, align 8
  %154 = load ptr, ptr %15, align 8
  %155 = getelementptr inbounds nuw %struct.sip_hash_value, ptr %154, i32 0, i32 3
  %156 = getelementptr inbounds nuw %struct.nstime_t, ptr %155, i32 0, i32 1
  %157 = load i32, ptr %156, align 8
  %158 = sub i32 %153, %157
  store i32 %158, ptr %19, align 4
  %159 = load i32, ptr %18, align 4
  %160 = mul i32 %159, 1000
  %161 = load i32, ptr %19, align 4
  %162 = sdiv i32 %161, 1000000
  %163 = add i32 %160, %162
  %164 = load ptr, ptr %16, align 8
  %165 = getelementptr inbounds nuw %struct.sip_frame_result_value, ptr %164, i32 0, i32 2
  store i32 %163, ptr %165, align 4
  %166 = load ptr, ptr %16, align 8
  %167 = getelementptr inbounds nuw %struct.sip_frame_result_value, ptr %166, i32 0, i32 2
  %168 = load i32, ptr %167, align 4
  %169 = load ptr, ptr %13, align 8
  store i32 %168, ptr %169, align 4
  %170 = load i32, ptr %17, align 4
  store i32 %170, ptr %7, align 4
  store i32 1, ptr %20, align 4
  br label %171

171:                                              ; preds = %136, %110, %61, %53, %31, %27
  call void @llvm.lifetime.end.p0(i64 4, ptr %19) #18
  call void @llvm.lifetime.end.p0(i64 4, ptr %18) #18
  call void @llvm.lifetime.end.p0(i64 4, ptr %17) #18
  call void @llvm.lifetime.end.p0(i64 8, ptr %16) #18
  call void @llvm.lifetime.end.p0(i64 8, ptr %15) #18
  call void @llvm.lifetime.end.p0(i64 192, ptr %14) #18
  %172 = load i32, ptr %7, align 4
  ret i32 %172
}