; Function Attrs: null_pointer_is_valid sspstrong uwtable
define internal fastcc i32 @sip_find_invite(ptr noundef %0, ptr noundef %1, i8 noundef zeroext %2, ptr noundef writeonly captures(none) %3) unnamed_addr #0 {
  %5 = alloca %struct.sip_hash_key, align 8
  call void @llvm.lifetime.start.p0(i64 192, ptr nonnull %5) #18
  %6 = getelementptr inbounds nuw i8, ptr %0, i64 276
  %7 = load i8, ptr %6, align 4
  %8 = and i8 %7, 1
  %.not = icmp ne i8 %8, 0
  %.not43 = icmp eq i8 %2, 0
  %or.cond = or i1 %.not43, %.not
  br i1 %or.cond, label %94, label %9

9:                                                ; preds = %4
  %10 = getelementptr inbounds nuw i8, ptr %0, i64 80
  %11 = load ptr, ptr %10, align 8
  %12 = getelementptr inbounds nuw i8, ptr %11, i64 57
  %13 = load i16, ptr %12, align 1
  %14 = and i16 %13, 8
  %.not44 = icmp eq i16 %14, 0
  br i1 %.not44, label %27, label %15

15:                                               ; preds = %9
  %16 = tail call ptr @wmem_file_scope()
  %17 = load i32, ptr @proto_sip, align 4
  %18 = getelementptr inbounds nuw i8, ptr %0, i64 376
  %19 = load i8, ptr %18, align 8
  %20 = zext i8 %19 to i32
  %21 = tail call ptr @p_get_proto_data(ptr noundef %16, ptr noundef %0, i32 noundef %17, i32 noundef %20)
  %.not46 = icmp eq ptr %21, null
  br i1 %.not46, label %94, label %22

22:                                               ; preds = %15
  %23 = getelementptr inbounds nuw i8, ptr %21, i64 8
  %24 = load i32, ptr %23, align 4
  store i32 %24, ptr %3, align 4
  %25 = getelementptr inbounds nuw i8, ptr %21, i64 4
  %26 = load i32, ptr %25, align 4
  br label %94

27:                                               ; preds = %9
  %28 = call i64 @g_strlcpy(ptr noundef nonnull %5, ptr noundef %1, i64 noundef 128)
  %29 = getelementptr inbounds nuw i8, ptr %5, i64 160
  %30 = getelementptr inbounds nuw i8, ptr %0, i64 184
  %31 = load i32, ptr %30, align 8
  %32 = getelementptr inbounds nuw i8, ptr %0, i64 188
  %33 = load i32, ptr %32, align 4
  %34 = getelementptr inbounds nuw i8, ptr %0, i64 192
  %35 = load ptr, ptr %34, align 8
  store i32 %31, ptr %29, align 8
  %36 = getelementptr inbounds nuw i8, ptr %5, i64 164
  store i32 %33, ptr %36, align 4
  %37 = getelementptr inbounds nuw i8, ptr %5, i64 168
  store ptr %35, ptr %37, align 8
  %38 = getelementptr inbounds nuw i8, ptr %5, i64 176
  store ptr null, ptr %38, align 8
  %39 = getelementptr inbounds nuw i8, ptr %5, i64 128
  %40 = getelementptr inbounds nuw i8, ptr %0, i64 160
  %41 = load i32, ptr %40, align 8
  %42 = getelementptr inbounds nuw i8, ptr %0, i64 164
  %43 = load i32, ptr %42, align 4
  %44 = getelementptr inbounds nuw i8, ptr %0, i64 168
  %45 = load ptr, ptr %44, align 8
  store i32 %41, ptr %39, align 8
  %46 = getelementptr inbounds nuw i8, ptr %5, i64 132
  store i32 %43, ptr %46, align 4
  %47 = getelementptr inbounds nuw i8, ptr %5, i64 136
  store ptr %45, ptr %47, align 8
  %48 = getelementptr inbounds nuw i8, ptr %5, i64 144
  store ptr null, ptr %48, align 8
  %49 = getelementptr inbounds nuw i8, ptr %0, i64 288
  %50 = load i32, ptr %49, align 8
  %51 = getelementptr inbounds nuw i8, ptr %5, i64 184
  store i32 %50, ptr %51, align 8
  %52 = getelementptr inbounds nuw i8, ptr %0, i64 284
  %53 = load i32, ptr %52, align 4
  %54 = getelementptr inbounds nuw i8, ptr %5, i64 152
  store i32 %53, ptr %54, align 8
  %55 = getelementptr inbounds nuw i8, ptr %0, i64 280
  %56 = load i32, ptr %55, align 8
  %57 = getelementptr inbounds nuw i8, ptr %5, i64 188
  store i32 %56, ptr %57, align 4
  %58 = load ptr, ptr @sip_hash, align 8
  %59 = call ptr @g_hash_table_lookup(ptr noundef %58, ptr noundef nonnull %5)
  %.not45 = icmp eq ptr %59, null
  br i1 %.not45, label %94, label %60

60:                                               ; preds = %27
  %61 = getelementptr inbounds nuw i8, ptr %59, i64 36
  %62 = load i32, ptr %61, align 4
  %63 = call ptr @wmem_file_scope()
  %64 = load i32, ptr @proto_sip, align 4
  %65 = getelementptr inbounds nuw i8, ptr %0, i64 376
  %66 = load i8, ptr %65, align 8
  %67 = zext i8 %66 to i32
  %68 = call ptr @p_get_proto_data(ptr noundef %63, ptr noundef %0, i32 noundef %64, i32 noundef %67)
  %69 = icmp eq ptr %68, null
  br i1 %69, label %70, label %77

70:                                               ; preds = %60
  %71 = call ptr @wmem_file_scope()
  %72 = call noalias dereferenceable_or_null(12) ptr @wmem_alloc0(ptr noundef %71, i64 noundef 12) #22
  %73 = call ptr @wmem_file_scope()
  %74 = load i32, ptr @proto_sip, align 4
  %75 = load i8, ptr %65, align 8
  %76 = zext i8 %75 to i32
  call void @p_add_proto_data(ptr noundef %73, ptr noundef %0, i32 noundef %74, i32 noundef %76, ptr noundef %72)
  br label %77

77:                                               ; preds = %70, %60
  %.039 = phi ptr [ %72, %70 ], [ %68, %60 ]
  %78 = getelementptr inbounds nuw i8, ptr %.039, i64 4
  store i32 %62, ptr %78, align 4
  %79 = getelementptr inbounds nuw i8, ptr %0, i64 24
  %80 = load i64, ptr %79, align 8
  %81 = getelementptr inbounds nuw i8, ptr %59, i64 16
  %82 = load i64, ptr %81, align 8
  %83 = sub i64 %80, %82
  %84 = trunc i64 %83 to i32
  %85 = getelementptr inbounds nuw i8, ptr %0, i64 32
  %86 = load i32, ptr %85, align 8
  %87 = getelementptr inbounds nuw i8, ptr %59, i64 24
  %88 = load i32, ptr %87, align 8
  %89 = sub i32 %86, %88
  %90 = mul i32 %84, 1000
  %91 = sdiv i32 %89, 1000000
  %92 = add i32 %91, %90
  %93 = getelementptr inbounds nuw i8, ptr %.039, i64 8
  store i32 %92, ptr %93, align 4
  store i32 %92, ptr %3, align 4
  br label %94

94:                                               ; preds = %27, %15, %4, %77, %22
  %.0 = phi i32 [ %26, %22 ], [ %62, %77 ], [ 0, %4 ], [ 0, %15 ], [ 0, %27 ]
  call void @llvm.lifetime.end.p0(i64 192, ptr nonnull %5) #18
  ret i32 %.0
}